; Function Attrs: nofree norecurse nosync nounwind memory(argmem: read) uwtable
define i32 @lv_file_explorer_get_sort(ptr noundef readonly captures(address_is_null) %0) local_unnamed_addr #3 {
  %.not = icmp eq ptr %0, null
  br i1 %.not, label %.preheader, label %2

.preheader:                                       ; preds = %1, %.preheader
  br label %.preheader

2:                                                ; preds = %1
  %3 = getelementptr inbounds nuw i8, ptr %0, i64 312
  %4 = load i32, ptr %3, align 8, !tbaa !3
  ret i32 %4
}